; Function Attrs: nounwind uwtable
define hidden void @zim_SimpleXMLElement___toString(ptr nocapture noundef readonly %0, ptr noundef %1) #1 {
  %3 = getelementptr inbounds i8, ptr %0, i64 44
  %4 = load i32, ptr %3, align 4
  %.not = icmp eq i32 %4, 0
  br i1 %.not, label %.critedge, label %5

5:                                                ; preds = %2
  tail call void @zend_wrong_parameters_none_error() #14
  %6 = load ptr, ptr getelementptr inbounds (%struct._zend_executor_globals, ptr @executor_globals, i64 0, i32 50), align 8
  %7 = icmp ne ptr %6, null
  tail call void @llvm.assume(i1 %7)
  br label %14

.critedge:                                        ; preds = %2
  %8 = getelementptr inbounds i8, ptr %0, i64 32
  %9 = load ptr, ptr %8, align 8
  %10 = tail call fastcc i32 @sxe_object_cast_ex(ptr noundef %9, ptr noundef %1, i32 noundef 6), !range !5
  %.not8 = icmp eq i32 %10, 0
  br i1 %.not8, label %14, label %11

11:                                               ; preds = %.critedge
  tail call void @zval_ptr_dtor(ptr noundef %1) #14
  %12 = load ptr, ptr @zend_empty_string, align 8
  store ptr %12, ptr %1, align 8
  %13 = getelementptr inbounds i8, ptr %1, i64 8
  store i32 6, ptr %13, align 8
  br label %14

14:                                               ; preds = %11, %.critedge, %5
  ret void
}